target datalayout = "e-m:e-p270:32:32-p271:32:32-p272:64:64-i64:64-i128:128-f80:128-n8:16:32:64-S128"
target triple = "x86_64-pc-linux-gnu"

%struct.pmix_list_t = type { %struct.pmix_object_t, %struct.pmix_list_item_t, i64 }
%struct.pmix_object_t = type { %union.pthread_mutex_t, ptr, i32, %struct.pmix_tma }
%union.pthread_mutex_t = type { %struct.__pthread_mutex_s }
%struct.__pthread_mutex_s = type { i32, i32, i32, i32, i32, i16, i16, %struct.__pthread_internal_list }
%struct.__pthread_internal_list = type { ptr, ptr }
%struct.pmix_tma = type { ptr, ptr, ptr, ptr, ptr, ptr, ptr, ptr }
%struct.pmix_list_item_t = type { %struct.pmix_object_t, ptr, ptr, i32 }
%struct.pmix_proc = type { [256 x i8], i32 }
%struct.timeval = type { i64, i64 }
%struct.pmix_iof_sink_t = type { %struct.pmix_list_item_t, %struct.pmix_proc, i16, %struct.pmix_iof_write_event_t, i8, i8, i8 }
%struct.pmix_iof_write_event_t = type { %struct.pmix_list_item_t, i8, i8, i32, ptr, %struct.timeval, i32, %struct.pmix_list_t }
%struct.event = type { %struct.event_callback, %union.anon.2, i32, ptr, %union.anon.4, i16, i16, %struct.timeval }
%struct.event_callback = type { %struct.anon.0, i16, i8, i8, %union.anon.1, ptr }
%struct.anon.0 = type { ptr, ptr }
%union.anon.1 = type { ptr }
%union.anon.2 = type { %struct.anon.3 }
%struct.anon.3 = type { ptr, ptr }
%union.anon.4 = type { %struct.anon.5 }
%struct.anon.5 = type { %struct.anon.6, %struct.timeval }
%struct.anon.6 = type { ptr, ptr }
%struct.pmix_pfexec_child_t = type { %struct.pmix_list_item_t, %struct.event, %struct.pmix_proc, i32, i8, i32, [2 x i32], %struct.pmix_pfexec_base_io_conf_t, %struct.pmix_iof_sink_t, ptr, ptr }
%struct.pmix_pfexec_base_io_conf_t = type { i32, i8, [2 x i32], [2 x i32], [2 x i32] }
%struct.termios = type { i32, i32, i32, i32, i8, [32 x i8], i32, i32 }

@stdout = external global ptr, align 8
@stdin = external global ptr, align 8
@stderr = external global ptr, align 8

; Function Attrs: nounwind uwtable
define i32 @pmix_pfexec_base_setup_child(ptr noundef %0) #0 {
  %2 = alloca i32, align 4
  %3 = alloca ptr, align 8
  %4 = alloca i32, align 4
  %5 = alloca ptr, align 8
  %6 = alloca %struct.termios, align 4
  %7 = alloca i32, align 4
  store ptr %0, ptr %3, align 8, !tbaa !9
  call void @llvm.lifetime.start.p0(i64 4, ptr %4) #12
  call void @llvm.lifetime.start.p0(i64 8, ptr %5) #12
  %8 = load ptr, ptr %3, align 8, !tbaa !9
  %9 = getelementptr inbounds nuw %struct.pmix_pfexec_child_t, ptr %8, i32 0, i32 7
  store ptr %9, ptr %5, align 8, !tbaa !9
  %10 = load ptr, ptr %5, align 8, !tbaa !9
  %11 = getelementptr inbounds nuw %struct.pmix_pfexec_base_io_conf_t, ptr %10, i32 0, i32 2
  %12 = getelementptr inbounds [2 x i32], ptr %11, i64 0, i64 1
  %13 = load i32, ptr %12, align 4, !tbaa !3
  %14 = icmp sle i32 0, %13
  br i1 %14, label %15, label %24

15:                                               ; preds = %1
  %16 = load ptr, ptr %5, align 8, !tbaa !9
  %17 = getelementptr inbounds nuw %struct.pmix_pfexec_base_io_conf_t, ptr %16, i32 0, i32 2
  %18 = getelementptr inbounds [2 x i32], ptr %17, i64 0, i64 1
  %19 = load i32, ptr %18, align 4, !tbaa !3
  %20 = call i32 @close(i32 noundef %19)
  %21 = load ptr, ptr %5, align 8, !tbaa !9
  %22 = getelementptr inbounds nuw %struct.pmix_pfexec_base_io_conf_t, ptr %21, i32 0, i32 2
  %23 = getelementptr inbounds [2 x i32], ptr %22, i64 0, i64 1
  store i32 -1, ptr %23, align 4, !tbaa !3
  br label %24

24:                                               ; preds = %15, %1
  %25 = load ptr, ptr %5, align 8, !tbaa !9
  %26 = getelementptr inbounds nuw %struct.pmix_pfexec_base_io_conf_t, ptr %25, i32 0, i32 3
  %27 = getelementptr inbounds [2 x i32], ptr %26, i64 0, i64 0
  %28 = load i32, ptr %27, align 4, !tbaa !3
  %29 = icmp sle i32 0, %28
  br i1 %29, label %30, label %39

30:                                               ; preds = %24
  %31 = load ptr, ptr %5, align 8, !tbaa !9
  %32 = getelementptr inbounds nuw %struct.pmix_pfexec_base_io_conf_t, ptr %31, i32 0, i32 3
  %33 = getelementptr inbounds [2 x i32], ptr %32, i64 0, i64 0
  %34 = load i32, ptr %33, align 4, !tbaa !3
  %35 = call i32 @close(i32 noundef %34)
  %36 = load ptr, ptr %5, align 8, !tbaa !9
  %37 = getelementptr inbounds nuw %struct.pmix_pfexec_base_io_conf_t, ptr %36, i32 0, i32 3
  %38 = getelementptr inbounds [2 x i32], ptr %37, i64 0, i64 0
  store i32 -1, ptr %38, align 4, !tbaa !3
  br label %39

39:                                               ; preds = %30, %24
  %40 = load ptr, ptr %5, align 8, !tbaa !9
  %41 = getelementptr inbounds nuw %struct.pmix_pfexec_base_io_conf_t, ptr %40, i32 0, i32 4
  %42 = getelementptr inbounds [2 x i32], ptr %41, i64 0, i64 0
  %43 = load i32, ptr %42, align 4, !tbaa !3
  %44 = icmp sle i32 0, %43
  br i1 %44, label %45, label %54

45:                                               ; preds = %39
  %46 = load ptr, ptr %5, align 8, !tbaa !9
  %47 = getelementptr inbounds nuw %struct.pmix_pfexec_base_io_conf_t, ptr %46, i32 0, i32 4
  %48 = getelementptr inbounds [2 x i32], ptr %47, i64 0, i64 0
  %49 = load i32, ptr %48, align 4, !tbaa !3
  %50 = call i32 @close(i32 noundef %49)
  %51 = load ptr, ptr %5, align 8, !tbaa !9
  %52 = getelementptr inbounds nuw %struct.pmix_pfexec_base_io_conf_t, ptr %51, i32 0, i32 4
  %53 = getelementptr inbounds [2 x i32], ptr %52, i64 0, i64 0
  store i32 -1, ptr %53, align 4, !tbaa !3
  br label %54

54:                                               ; preds = %45, %39
  %55 = load ptr, ptr %5, align 8, !tbaa !9
  %56 = getelementptr inbounds nuw %struct.pmix_pfexec_base_io_conf_t, ptr %55, i32 0, i32 0
  %57 = load i32, ptr %56, align 4, !tbaa !175
  %58 = icmp ne i32 %57, 0
  br i1 %58, label %59, label %114

59:                                               ; preds = %54
  call void @llvm.lifetime.start.p0(i64 60, ptr %6) #12
  %60 = load ptr, ptr %5, align 8, !tbaa !9
  %61 = getelementptr inbounds nuw %struct.pmix_pfexec_base_io_conf_t, ptr %60, i32 0, i32 3
  %62 = getelementptr inbounds [2 x i32], ptr %61, i64 0, i64 1
  %63 = load i32, ptr %62, align 4, !tbaa !3
  %64 = call i32 @tcgetattr(i32 noundef %63, ptr noundef %6) #12
  %65 = icmp slt i32 %64, 0
  br i1 %65, label %66, label %67

66:                                               ; preds = %59
  store i32 -330, ptr %2, align 4
  store i32 1, ptr %7, align 4
  br label %111

67:                                               ; preds = %59
  %68 = getelementptr inbounds nuw %struct.termios, ptr %6, i32 0, i32 3
  %69 = load i32, ptr %68, align 4, !tbaa !203
  %70 = and i32 %69, -2681
  store i32 %70, ptr %68, align 4, !tbaa !203
  %71 = getelementptr inbounds nuw %struct.termios, ptr %6, i32 0, i32 0
  %72 = load i32, ptr %71, align 4, !tbaa !205
  %73 = and i32 %72, -1393
  store i32 %73, ptr %71, align 4, !tbaa !205
  %74 = getelementptr inbounds nuw %struct.termios, ptr %6, i32 0, i32 1
  %75 = load i32, ptr %74, align 4, !tbaa !206
  %76 = and i32 %75, -13
  store i32 %76, ptr %74, align 4, !tbaa !206
  %77 = load ptr, ptr %5, align 8, !tbaa !9
  %78 = getelementptr inbounds nuw %struct.pmix_pfexec_base_io_conf_t, ptr %77, i32 0, i32 3
  %79 = getelementptr inbounds [2 x i32], ptr %78, i64 0, i64 1
  %80 = load i32, ptr %79, align 4, !tbaa !3
  %81 = call i32 @tcsetattr(i32 noundef %80, i32 noundef 0, ptr noundef %6) #12
  %82 = icmp eq i32 %81, -1
  br i1 %82, label %83, label %84

83:                                               ; preds = %67
  store i32 -330, ptr %2, align 4
  store i32 1, ptr %7, align 4
  br label %111

84:                                               ; preds = %67
  %85 = load ptr, ptr %5, align 8, !tbaa !9
  %86 = getelementptr inbounds nuw %struct.pmix_pfexec_base_io_conf_t, ptr %85, i32 0, i32 3
  %87 = getelementptr inbounds [2 x i32], ptr %86, i64 0, i64 1
  %88 = load i32, ptr %87, align 4, !tbaa !3
  %89 = load ptr, ptr @stdout, align 8, !tbaa !173
  %90 = call i32 @fileno(ptr noundef %89) #12
  %91 = call i32 @dup2(i32 noundef %88, i32 noundef %90) #12
  store i32 %91, ptr %4, align 4, !tbaa !3
  %92 = load i32, ptr %4, align 4, !tbaa !3
  %93 = icmp slt i32 %92, 0
  br i1 %93, label %94, label %95

94:                                               ; preds = %84
  store i32 -330, ptr %2, align 4
  store i32 1, ptr %7, align 4
  br label %111

95:                                               ; preds = %84
  %96 = load ptr, ptr %5, align 8, !tbaa !9
  %97 = getelementptr inbounds nuw %struct.pmix_pfexec_base_io_conf_t, ptr %96, i32 0, i32 3
  %98 = getelementptr inbounds [2 x i32], ptr %97, i64 0, i64 1
  %99 = load i32, ptr %98, align 4, !tbaa !3
  %100 = icmp sle i32 0, %99
  br i1 %100, label %101, label %110

101:                                              ; preds = %95
  %102 = load ptr, ptr %5, align 8, !tbaa !9
  %103 = getelementptr inbounds nuw %struct.pmix_pfexec_base_io_conf_t, ptr %102, i32 0, i32 3
  %104 = getelementptr inbounds [2 x i32], ptr %103, i64 0, i64 1
  %105 = load i32, ptr %104, align 4, !tbaa !3
  %106 = call i32 @close(i32 noundef %105)
  %107 = load ptr, ptr %5, align 8, !tbaa !9
  %108 = getelementptr inbounds nuw %struct.pmix_pfexec_base_io_conf_t, ptr %107, i32 0, i32 3
  %109 = getelementptr inbounds [2 x i32], ptr %108, i64 0, i64 1
  store i32 -1, ptr %109, align 4, !tbaa !3
  br label %110

110:                                              ; preds = %101, %95
  store i32 0, ptr %7, align 4
  br label %111

111:                                              ; preds = %110, %94, %83, %66
  call void @llvm.lifetime.end.p0(i64 60, ptr %6) #12
  %112 = load i32, ptr %7, align 4
  switch i32 %112, label %221 [
    i32 0, label %113
  ]

113:                                              ; preds = %111
  br label %150

114:                                              ; preds = %54
  %115 = load ptr, ptr %5, align 8, !tbaa !9
  %116 = getelementptr inbounds nuw %struct.pmix_pfexec_base_io_conf_t, ptr %115, i32 0, i32 3
  %117 = getelementptr inbounds [2 x i32], ptr %116, i64 0, i64 1
  %118 = load i32, ptr %117, align 4, !tbaa !3
  %119 = load ptr, ptr @stdout, align 8, !tbaa !173
  %120 = call i32 @fileno(ptr noundef %119) #12
  %121 = icmp ne i32 %118, %120
  br i1 %121, label %122, label %149

122:                                              ; preds = %114
  %123 = load ptr, ptr %5, align 8, !tbaa !9
  %124 = getelementptr inbounds nuw %struct.pmix_pfexec_base_io_conf_t, ptr %123, i32 0, i32 3
  %125 = getelementptr inbounds [2 x i32], ptr %124, i64 0, i64 1
  %126 = load i32, ptr %125, align 4, !tbaa !3
  %127 = load ptr, ptr @stdout, align 8, !tbaa !173
  %128 = call i32 @fileno(ptr noundef %127) #12
  %129 = call i32 @dup2(i32 noundef %126, i32 noundef %128) #12
  store i32 %129, ptr %4, align 4, !tbaa !3
  %130 = load i32, ptr %4, align 4, !tbaa !3
  %131 = icmp slt i32 %130, 0
  br i1 %131, label %132, label %133

132:                                              ; preds = %122
  store i32 -330, ptr %2, align 4
  store i32 1, ptr %7, align 4
  br label %221

133:                                              ; preds = %122
  %134 = load ptr, ptr %5, align 8, !tbaa !9
  %135 = getelementptr inbounds nuw %struct.pmix_pfexec_base_io_conf_t, ptr %134, i32 0, i32 3
  %136 = getelementptr inbounds [2 x i32], ptr %135, i64 0, i64 1
  %137 = load i32, ptr %136, align 4, !tbaa !3
  %138 = icmp sle i32 0, %137
  br i1 %138, label %139, label %148

139:                                              ; preds = %133
  %140 = load ptr, ptr %5, align 8, !tbaa !9
  %141 = getelementptr inbounds nuw %struct.pmix_pfexec_base_io_conf_t, ptr %140, i32 0, i32 3
  %142 = getelementptr inbounds [2 x i32], ptr %141, i64 0, i64 1
  %143 = load i32, ptr %142, align 4, !tbaa !3
  %144 = call i32 @close(i32 noundef %143)
  %145 = load ptr, ptr %5, align 8, !tbaa !9
  %146 = getelementptr inbounds nuw %struct.pmix_pfexec_base_io_conf_t, ptr %145, i32 0, i32 3
  %147 = getelementptr inbounds [2 x i32], ptr %146, i64 0, i64 1
  store i32 -1, ptr %147, align 4, !tbaa !3
  br label %148

148:                                              ; preds = %139, %133
  br label %149

149:                                              ; preds = %148, %114
  br label %150

150:                                              ; preds = %149, %113
  %151 = load ptr, ptr %5, align 8, !tbaa !9
  %152 = getelementptr inbounds nuw %struct.pmix_pfexec_base_io_conf_t, ptr %151, i32 0, i32 2
  %153 = getelementptr inbounds [2 x i32], ptr %152, i64 0, i64 0
  %154 = load i32, ptr %153, align 4, !tbaa !3
  %155 = load ptr, ptr @stdin, align 8, !tbaa !173
  %156 = call i32 @fileno(ptr noundef %155) #12
  %157 = icmp ne i32 %154, %156
  br i1 %157, label %158, label %185

158:                                              ; preds = %150
  %159 = load ptr, ptr %5, align 8, !tbaa !9
  %160 = getelementptr inbounds nuw %struct.pmix_pfexec_base_io_conf_t, ptr %159, i32 0, i32 2
  %161 = getelementptr inbounds [2 x i32], ptr %160, i64 0, i64 0
  %162 = load i32, ptr %161, align 4, !tbaa !3
  %163 = load ptr, ptr @stdin, align 8, !tbaa !173
  %164 = call i32 @fileno(ptr noundef %163) #12
  %165 = call i32 @dup2(i32 noundef %162, i32 noundef %164) #12
  store i32 %165, ptr %4, align 4, !tbaa !3
  %166 = load i32, ptr %4, align 4, !tbaa !3
  %167 = icmp slt i32 %166, 0
  br i1 %167, label %168, label %169

168:                                              ; preds = %158
  store i32 -330, ptr %2, align 4
  store i32 1, ptr %7, align 4
  br label %221

169:                                              ; preds = %158
  %170 = load ptr, ptr %5, align 8, !tbaa !9
  %171 = getelementptr inbounds nuw %struct.pmix_pfexec_base_io_conf_t, ptr %170, i32 0, i32 2
  %172 = getelementptr inbounds [2 x i32], ptr %171, i64 0, i64 0
  %173 = load i32, ptr %172, align 4, !tbaa !3
  %174 = icmp sle i32 0, %173
  br i1 %174, label %175, label %184

175:                                              ; preds = %169
  %176 = load ptr, ptr %5, align 8, !tbaa !9
  %177 = getelementptr inbounds nuw %struct.pmix_pfexec_base_io_conf_t, ptr %176, i32 0, i32 2
  %178 = getelementptr inbounds [2 x i32], ptr %177, i64 0, i64 0
  %179 = load i32, ptr %178, align 4, !tbaa !3
  %180 = call i32 @close(i32 noundef %179)
  %181 = load ptr, ptr %5, align 8, !tbaa !9
  %182 = getelementptr inbounds nuw %struct.pmix_pfexec_base_io_conf_t, ptr %181, i32 0, i32 2
  %183 = getelementptr inbounds [2 x i32], ptr %182, i64 0, i64 0
  store i32 -1, ptr %183, align 4, !tbaa !3
  br label %184

184:                                              ; preds = %175, %169
  br label %185

185:                                              ; preds = %184, %150
  %186 = load ptr, ptr %5, align 8, !tbaa !9
  %187 = getelementptr inbounds nuw %struct.pmix_pfexec_base_io_conf_t, ptr %186, i32 0, i32 4
  %188 = getelementptr inbounds [2 x i32], ptr %187, i64 0, i64 1
  %189 = load i32, ptr %188, align 4, !tbaa !3
  %190 = load ptr, ptr @stderr, align 8, !tbaa !173
  %191 = call i32 @fileno(ptr noundef %190) #12
  %192 = icmp ne i32 %189, %191
  br i1 %192, label %193, label %220

193:                                              ; preds = %185
  %194 = load ptr, ptr %5, align 8, !tbaa !9
  %195 = getelementptr inbounds nuw %struct.pmix_pfexec_base_io_conf_t, ptr %194, i32 0, i32 4
  %196 = getelementptr inbounds [2 x i32], ptr %195, i64 0, i64 1
  %197 = load i32, ptr %196, align 4, !tbaa !3
  %198 = load ptr, ptr @stderr, align 8, !tbaa !173
  %199 = call i32 @fileno(ptr noundef %198) #12
  %200 = call i32 @dup2(i32 noundef %197, i32 noundef %199) #12
  store i32 %200, ptr %4, align 4, !tbaa !3
  %201 = load i32, ptr %4, align 4, !tbaa !3
  %202 = icmp slt i32 %201, 0
  br i1 %202, label %203, label %204

203:                                              ; preds = %193
  store i32 -330, ptr %2, align 4
  store i32 1, ptr %7, align 4
  br label %221

204:                                              ; preds = %193
  %205 = load ptr, ptr %5, align 8, !tbaa !9
  %206 = getelementptr inbounds nuw %struct.pmix_pfexec_base_io_conf_t, ptr %205, i32 0, i32 4
  %207 = getelementptr inbounds [2 x i32], ptr %206, i64 0, i64 1
  %208 = load i32, ptr %207, align 4, !tbaa !3
  %209 = icmp sle i32 0, %208
  br i1 %209, label %210, label %219

210:                                              ; preds = %204
  %211 = load ptr, ptr %5, align 8, !tbaa !9
  %212 = getelementptr inbounds nuw %struct.pmix_pfexec_base_io_conf_t, ptr %211, i32 0, i32 4
  %213 = getelementptr inbounds [2 x i32], ptr %212, i64 0, i64 1
  %214 = load i32, ptr %213, align 4, !tbaa !3
  %215 = call i32 @close(i32 noundef %214)
  %216 = load ptr, ptr %5, align 8, !tbaa !9
  %217 = getelementptr inbounds nuw %struct.pmix_pfexec_base_io_conf_t, ptr %216, i32 0, i32 4
  %218 = getelementptr inbounds [2 x i32], ptr %217, i64 0, i64 1
  store i32 -1, ptr %218, align 4, !tbaa !3
  br label %219

219:                                              ; preds = %210, %204
  br label %220

220:                                              ; preds = %219, %185
  store i32 0, ptr %2, align 4
  store i32 1, ptr %7, align 4
  br label %221

221:                                              ; preds = %220, %203, %168, %132, %111
  call void @llvm.lifetime.end.p0(i64 8, ptr %5) #12
  call void @llvm.lifetime.end.p0(i64 4, ptr %4) #12
  %222 = load i32, ptr %2, align 4
  ret i32 %222
}