; Function Attrs: nounwind uwtable
define range(i32 -330, 1) i32 @pmix_pfexec_base_setup_child(ptr noundef captures(none) %0) local_unnamed_addr #0 {
  %2 = alloca %struct.termios, align 4
  %3 = getelementptr inbounds nuw i8, ptr %0, i64 552
  %4 = getelementptr inbounds nuw i8, ptr %0, i64 560
  %5 = getelementptr inbounds nuw i8, ptr %0, i64 564
  %6 = load i32, ptr %5, align 4, !tbaa !28
  %7 = icmp sgt i32 %6, -1
  br i1 %7, label %8, label %10

8:                                                ; preds = %1
  %9 = tail call i32 @close(i32 noundef %6) #12
  store i32 -1, ptr %5, align 4, !tbaa !28
  br label %10

10:                                               ; preds = %8, %1
  %11 = getelementptr inbounds nuw i8, ptr %0, i64 568
  %12 = load i32, ptr %11, align 4, !tbaa !28
  %13 = icmp sgt i32 %12, -1
  br i1 %13, label %14, label %16

14:                                               ; preds = %10
  %15 = tail call i32 @close(i32 noundef %12) #12
  store i32 -1, ptr %11, align 4, !tbaa !28
  br label %16

16:                                               ; preds = %14, %10
  %17 = getelementptr inbounds nuw i8, ptr %0, i64 576
  %18 = load i32, ptr %17, align 4, !tbaa !28
  %19 = icmp sgt i32 %18, -1
  br i1 %19, label %20, label %22

20:                                               ; preds = %16
  %21 = tail call i32 @close(i32 noundef %18) #12
  store i32 -1, ptr %17, align 4, !tbaa !28
  br label %22

22:                                               ; preds = %20, %16
  %23 = load i32, ptr %3, align 4, !tbaa !124
  %.not = icmp eq i32 %23, 0
  br i1 %.not, label %53, label %24

24:                                               ; preds = %22
  call void @llvm.lifetime.start.p0(i64 60, ptr nonnull %2) #12
  %25 = getelementptr inbounds nuw i8, ptr %0, i64 572
  %26 = load i32, ptr %25, align 4, !tbaa !28
  %27 = call i32 @tcgetattr(i32 noundef %26, ptr noundef nonnull %2) #12
  %28 = icmp slt i32 %27, 0
  br i1 %28, label %.critedge, label %29

29:                                               ; preds = %24
  %30 = getelementptr inbounds nuw i8, ptr %2, i64 12
  %31 = load i32, ptr %30, align 4, !tbaa !175
  %32 = and i32 %31, -2681
  store i32 %32, ptr %30, align 4, !tbaa !175
  %33 = load i32, ptr %2, align 4, !tbaa !177
  %34 = and i32 %33, -1393
  store i32 %34, ptr %2, align 4, !tbaa !177
  %35 = getelementptr inbounds nuw i8, ptr %2, i64 4
  %36 = load i32, ptr %35, align 4, !tbaa !178
  %37 = and i32 %36, -13
  store i32 %37, ptr %35, align 4, !tbaa !178
  %38 = load i32, ptr %25, align 4, !tbaa !28
  %39 = call i32 @tcsetattr(i32 noundef %38, i32 noundef 0, ptr noundef nonnull %2) #12
  %40 = icmp eq i32 %39, -1
  br i1 %40, label %.critedge, label %41

41:                                               ; preds = %29
  %42 = load i32, ptr %25, align 4, !tbaa !28
  %43 = load ptr, ptr @stdout, align 8, !tbaa !122
  %44 = call i32 @fileno(ptr noundef %43) #12
  %45 = call i32 @dup2(i32 noundef %42, i32 noundef %44) #12
  %46 = icmp slt i32 %45, 0
  br i1 %46, label %.critedge, label %47

47:                                               ; preds = %41
  %48 = load i32, ptr %25, align 4, !tbaa !28
  %49 = icmp sgt i32 %48, -1
  br i1 %49, label %50, label %52

50:                                               ; preds = %47
  %51 = call i32 @close(i32 noundef %48) #12
  store i32 -1, ptr %25, align 4, !tbaa !28
  br label %52

52:                                               ; preds = %47, %50
  call void @llvm.lifetime.end.p0(i64 60, ptr nonnull %2) #12
  br label %69

53:                                               ; preds = %22
  %54 = getelementptr inbounds nuw i8, ptr %0, i64 572
  %55 = load i32, ptr %54, align 4, !tbaa !28
  %56 = load ptr, ptr @stdout, align 8, !tbaa !122
  %57 = tail call i32 @fileno(ptr noundef %56) #12
  %.not45 = icmp eq i32 %55, %57
  br i1 %.not45, label %69, label %58

58:                                               ; preds = %53
  %59 = load i32, ptr %54, align 4, !tbaa !28
  %60 = load ptr, ptr @stdout, align 8, !tbaa !122
  %61 = tail call i32 @fileno(ptr noundef %60) #12
  %62 = tail call i32 @dup2(i32 noundef %59, i32 noundef %61) #12
  %63 = icmp slt i32 %62, 0
  br i1 %63, label %100, label %64

64:                                               ; preds = %58
  %65 = load i32, ptr %54, align 4, !tbaa !28
  %66 = icmp sgt i32 %65, -1
  br i1 %66, label %67, label %69

67:                                               ; preds = %64
  %68 = tail call i32 @close(i32 noundef %65) #12
  store i32 -1, ptr %54, align 4, !tbaa !28
  br label %69

69:                                               ; preds = %52, %53, %67, %64
  %70 = load i32, ptr %4, align 4, !tbaa !28
  %71 = load ptr, ptr @stdin, align 8, !tbaa !122
  %72 = call i32 @fileno(ptr noundef %71) #12
  %.not46 = icmp eq i32 %70, %72
  br i1 %.not46, label %84, label %73

73:                                               ; preds = %69
  %74 = load i32, ptr %4, align 4, !tbaa !28
  %75 = load ptr, ptr @stdin, align 8, !tbaa !122
  %76 = call i32 @fileno(ptr noundef %75) #12
  %77 = call i32 @dup2(i32 noundef %74, i32 noundef %76) #12
  %78 = icmp slt i32 %77, 0
  br i1 %78, label %100, label %79

79:                                               ; preds = %73
  %80 = load i32, ptr %4, align 4, !tbaa !28
  %81 = icmp sgt i32 %80, -1
  br i1 %81, label %82, label %84

82:                                               ; preds = %79
  %83 = call i32 @close(i32 noundef %80) #12
  store i32 -1, ptr %4, align 4, !tbaa !28
  br label %84

84:                                               ; preds = %79, %82, %69
  %85 = getelementptr inbounds nuw i8, ptr %0, i64 580
  %86 = load i32, ptr %85, align 4, !tbaa !28
  %87 = load ptr, ptr @stderr, align 8, !tbaa !122
  %88 = call i32 @fileno(ptr noundef %87) #12
  %.not47 = icmp eq i32 %86, %88
  br i1 %.not47, label %100, label %89

89:                                               ; preds = %84
  %90 = load i32, ptr %85, align 4, !tbaa !28
  %91 = load ptr, ptr @stderr, align 8, !tbaa !122
  %92 = call i32 @fileno(ptr noundef %91) #12
  %93 = call i32 @dup2(i32 noundef %90, i32 noundef %92) #12
  %94 = icmp slt i32 %93, 0
  br i1 %94, label %100, label %95

95:                                               ; preds = %89
  %96 = load i32, ptr %85, align 4, !tbaa !28
  %97 = icmp sgt i32 %96, -1
  br i1 %97, label %98, label %100

98:                                               ; preds = %95
  %99 = call i32 @close(i32 noundef %96) #12
  store i32 -1, ptr %85, align 4, !tbaa !28
  br label %100

.critedge:                                        ; preds = %41, %29, %24
  call void @llvm.lifetime.end.p0(i64 60, ptr nonnull %2) #12
  br label %100

100:                                              ; preds = %84, %98, %95, %89, %73, %58, %.critedge
  %.1 = phi i32 [ -330, %.critedge ], [ -330, %58 ], [ -330, %73 ], [ -330, %89 ], [ 0, %95 ], [ 0, %98 ], [ 0, %84 ]
  ret i32 %.1
}